; Function Attrs: mustprogress uwtable
define hidden void @_ZN3smt5setup13setup_recfunsEv(ptr nocapture noundef nonnull readonly align 8 dereferenceable(33) %this) local_unnamed_addr #4 align 2 {
entry:
  %call = tail call noalias noundef ptr @_ZN6memory8allocateEm(i64 noundef 216)
  %0 = load ptr, ptr %this, align 8
  tail call void @_ZN3smt13theory_recfunC1ERNS_7contextE(ptr noundef nonnull align 8 dereferenceable(212) %call, ptr noundef nonnull align 8 dereferenceable(11616) %0)
  %1 = load ptr, ptr %this, align 8
  tail call void @_ZN3smt7context15register_pluginEPNS_6theoryE(ptr noundef nonnull align 8 dereferenceable(11616) %1, ptr noundef nonnull %call)
  ret void
}